target datalayout = "e-m:e-p270:32:32-p271:32:32-p272:64:64-i64:64-i128:128-f80:128-n8:16:32:64-S128"
target triple = "x86_64-pc-linux-gnu"

%struct.FT_FaceRec_ = type { i64, i64, i64, i64, i64, ptr, ptr, i32, ptr, i32, ptr, %struct.FT_Generic_, %struct.FT_BBox_, i16, i16, i16, i16, i16, i16, i16, i16, ptr, ptr, ptr, ptr, ptr, ptr, %struct.FT_ListRec_, %struct.FT_Generic_, ptr, ptr }
%struct.FT_BBox_ = type { i64, i64, i64, i64 }
%struct.FT_ListRec_ = type { ptr, ptr }
%struct.FT_Generic_ = type { ptr, ptr }
%struct.FT_CMapRec_ = type { %struct.FT_CharMapRec_, ptr }
%struct.FT_CharMapRec_ = type { ptr, i32, i16, i16 }
%struct.FT_CMap_ClassRec_ = type { i64, ptr, ptr, ptr, ptr, ptr, ptr, ptr, ptr, ptr }

; Function Attrs: nounwind uwtable
define i64 @FT_Get_Next_Char(ptr noundef %0, i64 noundef %1, ptr noundef %2) #0 {
  %4 = alloca ptr, align 8
  %5 = alloca i64, align 8
  %6 = alloca ptr, align 8
  %7 = alloca i64, align 8
  %8 = alloca i32, align 4
  %9 = alloca i32, align 4
  %10 = alloca ptr, align 8
  store ptr %0, ptr %4, align 8, !tbaa !3
  store i64 %1, ptr %5, align 8, !tbaa !47
  store ptr %2, ptr %6, align 8, !tbaa !164
  call void @llvm.lifetime.start.p0(i64 8, ptr %7) #10
  store i64 0, ptr %7, align 8, !tbaa !47
  call void @llvm.lifetime.start.p0(i64 4, ptr %8) #10
  store i32 0, ptr %8, align 4, !tbaa !8
  %11 = load ptr, ptr %4, align 8, !tbaa !3
  %12 = icmp ne ptr %11, null
  br i1 %12, label %13, label %53

13:                                               ; preds = %3
  %14 = load ptr, ptr %4, align 8, !tbaa !3
  %15 = getelementptr inbounds nuw %struct.FT_FaceRec_, ptr %14, i32 0, i32 23
  %16 = load ptr, ptr %15, align 8, !tbaa !353
  %17 = icmp ne ptr %16, null
  br i1 %17, label %18, label %53

18:                                               ; preds = %13
  %19 = load ptr, ptr %4, align 8, !tbaa !3
  %20 = getelementptr inbounds nuw %struct.FT_FaceRec_, ptr %19, i32 0, i32 4
  %21 = load i64, ptr %20, align 8, !tbaa !12
  %22 = icmp ne i64 %21, 0
  br i1 %22, label %23, label %53

23:                                               ; preds = %18
  call void @llvm.lifetime.start.p0(i64 4, ptr %9) #10
  %24 = load i64, ptr %5, align 8, !tbaa !47
  %25 = trunc i64 %24 to i32
  store i32 %25, ptr %9, align 4, !tbaa !8
  call void @llvm.lifetime.start.p0(i64 8, ptr %10) #10
  %26 = load ptr, ptr %4, align 8, !tbaa !3
  %27 = getelementptr inbounds nuw %struct.FT_FaceRec_, ptr %26, i32 0, i32 23
  %28 = load ptr, ptr %27, align 8, !tbaa !353
  store ptr %28, ptr %10, align 8, !tbaa !354
  br label %29

29:                                               ; preds = %37, %23
  %30 = load ptr, ptr %10, align 8, !tbaa !354
  %31 = getelementptr inbounds nuw %struct.FT_CMapRec_, ptr %30, i32 0, i32 1
  %32 = load ptr, ptr %31, align 8, !tbaa !356
  %33 = getelementptr inbounds nuw %struct.FT_CMap_ClassRec_, ptr %32, i32 0, i32 4
  %34 = load ptr, ptr %33, align 8, !tbaa !474
  %35 = load ptr, ptr %10, align 8, !tbaa !354
  %36 = call i32 %34(ptr noundef %35, ptr noundef %9)
  store i32 %36, ptr %8, align 4, !tbaa !8
  br label %37

37:                                               ; preds = %29
  %38 = load i32, ptr %8, align 4, !tbaa !8
  %39 = load ptr, ptr %4, align 8, !tbaa !3
  %40 = getelementptr inbounds nuw %struct.FT_FaceRec_, ptr %39, i32 0, i32 4
  %41 = load i64, ptr %40, align 8, !tbaa !12
  %42 = trunc i64 %41 to i32
  %43 = icmp uge i32 %38, %42
  br i1 %43, label %29, label %44, !llvm.loop !475

44:                                               ; preds = %37
  %45 = load i32, ptr %8, align 4, !tbaa !8
  %46 = icmp eq i32 %45, 0
  br i1 %46, label %47, label %48

47:                                               ; preds = %44
  br label %50

48:                                               ; preds = %44
  %49 = load i32, ptr %9, align 4, !tbaa !8
  br label %50

50:                                               ; preds = %48, %47
  %51 = phi i32 [ 0, %47 ], [ %49, %48 ]
  %52 = zext i32 %51 to i64
  store i64 %52, ptr %7, align 8, !tbaa !47
  call void @llvm.lifetime.end.p0(i64 8, ptr %10) #10
  call void @llvm.lifetime.end.p0(i64 4, ptr %9) #10
  br label %53

53:                                               ; preds = %50, %18, %13, %3
  %54 = load ptr, ptr %6, align 8, !tbaa !164
  %55 = icmp ne ptr %54, null
  br i1 %55, label %56, label %59

56:                                               ; preds = %53
  %57 = load i32, ptr %8, align 4, !tbaa !8
  %58 = load ptr, ptr %6, align 8, !tbaa !164
  store i32 %57, ptr %58, align 4, !tbaa !8
  br label %59

59:                                               ; preds = %56, %53
  %60 = load i64, ptr %7, align 8, !tbaa !47
  call void @llvm.lifetime.end.p0(i64 4, ptr %8) #10
  call void @llvm.lifetime.end.p0(i64 8, ptr %7) #10
  ret i64 %60
}