; Function Attrs: nounwind uwtable
define range(i64 0, 4294967296) i64 @FT_Get_Next_Char(ptr noundef readonly %0, i64 noundef %1, ptr noundef writeonly %2) local_unnamed_addr #0 {
  %4 = alloca i32, align 4
  %.not = icmp eq ptr %0, null
  br i1 %.not, label %26, label %5

5:                                                ; preds = %3
  %6 = getelementptr inbounds nuw i8, ptr %0, i64 168
  %7 = load ptr, ptr %6, align 8, !tbaa !291
  %.not17 = icmp eq ptr %7, null
  br i1 %.not17, label %26, label %8

8:                                                ; preds = %5
  %9 = getelementptr inbounds nuw i8, ptr %0, i64 32
  %10 = load i64, ptr %9, align 8, !tbaa !3
  %.not18 = icmp eq i64 %10, 0
  br i1 %.not18, label %26, label %11

11:                                               ; preds = %8
  call void @llvm.lifetime.start.p0(i64 4, ptr nonnull %4) #34
  %12 = trunc i64 %1 to i32
  store i32 %12, ptr %4, align 4, !tbaa !168
  %13 = getelementptr inbounds nuw i8, ptr %7, i64 16
  br label %14

14:                                               ; preds = %14, %11
  %15 = load ptr, ptr %13, align 8, !tbaa !292
  %16 = getelementptr inbounds nuw i8, ptr %15, i64 32
  %17 = load ptr, ptr %16, align 8, !tbaa !399
  %18 = call i32 %17(ptr noundef nonnull %7, ptr noundef nonnull %4) #34
  %19 = load i64, ptr %9, align 8, !tbaa !3
  %20 = trunc i64 %19 to i32
  %.not19 = icmp ult i32 %18, %20
  br i1 %.not19, label %21, label %14, !llvm.loop !400

21:                                               ; preds = %14
  %22 = icmp eq i32 %18, 0
  %23 = load i32, ptr %4, align 4
  %24 = select i1 %22, i32 0, i32 %23
  %25 = zext i32 %24 to i64
  call void @llvm.lifetime.end.p0(i64 4, ptr nonnull %4) #34
  br label %26

26:                                               ; preds = %21, %8, %5, %3
  %.013 = phi i32 [ %18, %21 ], [ 0, %8 ], [ 0, %5 ], [ 0, %3 ]
  %.0 = phi i64 [ %25, %21 ], [ 0, %8 ], [ 0, %5 ], [ 0, %3 ]
  %.not20 = icmp eq ptr %2, null
  br i1 %.not20, label %28, label %27

27:                                               ; preds = %26
  store i32 %.013, ptr %2, align 4, !tbaa !168
  br label %28

28:                                               ; preds = %27, %26
  ret i64 %.0
}